; ModuleID = '12/1098.c'
source_filename = "12/1098.c"
target datalayout = "e-m:e-p270:32:32-p271:32:32-p272:64:64-i64:64-f80:128-n8:16:32:64-S128"
target triple = "x86_64-pc-linux-gnu"

@.str = private unnamed_addr constant [3 x i8] c"%d\00", align 1
@.str.1 = private unnamed_addr constant [4 x i8] c"%d\0A\00", align 1

; Function Attrs: noinline nounwind uwtable
define dso_local i32 @main() #0 {
  %1 = alloca i32, align 4
  %2 = alloca [100 x [17 x i32]], align 16
  %3 = alloca i32, align 4
  %4 = alloca i32, align 4
  %5 = alloca i32, align 4
  %6 = alloca i32, align 4
  %7 = alloca i32, align 4
  %8 = alloca i32, align 4
  %9 = alloca i32, align 4
  store i32 0, i32* %1, align 4
  %10 = bitcast [100 x [17 x i32]]* %2 to i8*
  call void @llvm.memset.p0i8.i64(i8* align 16 %10, i8 0, i64 6800, i1 false)
  store i32 0, i32* %7, align 4
  store i32 0, i32* %8, align 4
  store i32 0, i32* %9, align 4
  store i32 0, i32* %3, align 4
  br label %11

11:                                               ; preds = %35, %0
  store i32 0, i32* %4, align 4
  br label %12

12:                                               ; preds = %29, %11
  %13 = call i32 (i8*, ...) @__isoc99_scanf(i8* getelementptr inbounds ([3 x i8], [3 x i8]* @.str, i64 0, i64 0), i32* %6)
  %14 = load i32, i32* %6, align 4
  %15 = icmp eq i32 %14, 0
  br i1 %15, label %16, label %17

16:                                               ; preds = %12
  br label %32

17:                                               ; preds = %12
  %18 = load i32, i32* %6, align 4
  %19 = icmp eq i32 %18, -1
  br i1 %19, label %20, label %21

20:                                               ; preds = %17
  br label %38

21:                                               ; preds = %17
  %22 = load i32, i32* %6, align 4
  %23 = load i32, i32* %3, align 4
  %24 = sext i32 %23 to i64
  %25 = getelementptr inbounds [100 x [17 x i32]], [100 x [17 x i32]]* %2, i64 0, i64 %24
  %26 = load i32, i32* %4, align 4
  %27 = sext i32 %26 to i64
  %28 = getelementptr inbounds [17 x i32], [17 x i32]* %25, i64 0, i64 %27
  store i32 %22, i32* %28, align 4
  br label %29

29:                                               ; preds = %21
  %30 = load i32, i32* %4, align 4
  %31 = add nsw i32 %30, 1
  store i32 %31, i32* %4, align 4
  br label %12

32:                                               ; preds = %16
  %33 = load i32, i32* %7, align 4
  %34 = add nsw i32 %33, 1
  store i32 %34, i32* %7, align 4
  br label %35

35:                                               ; preds = %32
  %36 = load i32, i32* %3, align 4
  %37 = add nsw i32 %36, 1
  store i32 %37, i32* %3, align 4
  br label %11

38:                                               ; preds = %20
  store i32 0, i32* %3, align 4
  br label %39

39:                                               ; preds = %104, %38
  %40 = load i32, i32* %3, align 4
  %41 = load i32, i32* %7, align 4
  %42 = icmp slt i32 %40, %41
  br i1 %42, label %43, label %107

43:                                               ; preds = %39
  store i32 0, i32* %4, align 4
  br label %44

44:                                               ; preds = %58, %43
  %45 = load i32, i32* %3, align 4
  %46 = sext i32 %45 to i64
  %47 = getelementptr inbounds [100 x [17 x i32]], [100 x [17 x i32]]* %2, i64 0, i64 %46
  %48 = load i32, i32* %4, align 4
  %49 = sext i32 %48 to i64
  %50 = getelementptr inbounds [17 x i32], [17 x i32]* %47, i64 0, i64 %49
  %51 = load i32, i32* %50, align 4
  %52 = icmp ne i32 %51, 0
  br i1 %52, label %53, label %56

53:                                               ; preds = %44
  %54 = load i32, i32* %8, align 4
  %55 = add nsw i32 %54, 1
  store i32 %55, i32* %8, align 4
  br label %57

56:                                               ; preds = %44
  br label %61

57:                                               ; preds = %53
  br label %58

58:                                               ; preds = %57
  %59 = load i32, i32* %4, align 4
  %60 = add nsw i32 %59, 1
  store i32 %60, i32* %4, align 4
  br label %44

61:                                               ; preds = %56
  store i32 0, i32* %4, align 4
  br label %62

62:                                               ; preds = %98, %61
  %63 = load i32, i32* %4, align 4
  %64 = load i32, i32* %8, align 4
  %65 = icmp slt i32 %63, %64
  br i1 %65, label %66, label %101

66:                                               ; preds = %62
  store i32 0, i32* %5, align 4
  br label %67

67:                                               ; preds = %94, %66
  %68 = load i32, i32* %5, align 4
  %69 = load i32, i32* %8, align 4
  %70 = icmp slt i32 %68, %69
  br i1 %70, label %71, label %97

71:                                               ; preds = %67
  %72 = load i32, i32* %3, align 4
  %73 = sext i32 %72 to i64
  %74 = getelementptr inbounds [100 x [17 x i32]], [100 x [17 x i32]]* %2, i64 0, i64 %73
  %75 = load i32, i32* %4, align 4
  %76 = sext i32 %75 to i64
  %77 = getelementptr inbounds [17 x i32], [17 x i32]* %74, i64 0, i64 %76
  %78 = load i32, i32* %77, align 4
  %79 = sitofp i32 %78 to float
  %80 = load i32, i32* %3, align 4
  %81 = sext i32 %80 to i64
  %82 = getelementptr inbounds [100 x [17 x i32]], [100 x [17 x i32]]* %2, i64 0, i64 %81
  %83 = load i32, i32* %5, align 4
  %84 = sext i32 %83 to i64
  %85 = getelementptr inbounds [17 x i32], [17 x i32]* %82, i64 0, i64 %84
  %86 = load i32, i32* %85, align 4
  %87 = sitofp i32 %86 to float
  %88 = fdiv float %79, %87
  %89 = fcmp oeq float %88, 2.000000e+00
  br i1 %89, label %90, label %93

90:                                               ; preds = %71
  %91 = load i32, i32* %9, align 4
  %92 = add nsw i32 %91, 1
  store i32 %92, i32* %9, align 4
  br label %93

93:                                               ; preds = %90, %71
  br label %94

94:                                               ; preds = %93
  %95 = load i32, i32* %5, align 4
  %96 = add nsw i32 %95, 1
  store i32 %96, i32* %5, align 4
  br label %67

97:                                               ; preds = %67
  br label %98

98:                                               ; preds = %97
  %99 = load i32, i32* %4, align 4
  %100 = add nsw i32 %99, 1
  store i32 %100, i32* %4, align 4
  br label %62

101:                                              ; preds = %62
  %102 = load i32, i32* %9, align 4
  %103 = call i32 (i8*, ...) @printf(i8* getelementptr inbounds ([4 x i8], [4 x i8]* @.str.1, i64 0, i64 0), i32 %102)
  store i32 0, i32* %9, align 4
  store i32 0, i32* %8, align 4
  br label %104

104:                                              ; preds = %101
  %105 = load i32, i32* %3, align 4
  %106 = add nsw i32 %105, 1
  store i32 %106, i32* %3, align 4
  br label %39

107:                                              ; preds = %39
  ret i32 0
}

; Function Attrs: argmemonly nounwind willreturn
declare void @llvm.memset.p0i8.i64(i8* nocapture writeonly, i8, i64, i1 immarg) #1

declare dso_local i32 @__isoc99_scanf(i8*, ...) #2

declare dso_local i32 @printf(i8*, ...) #2


!llvm.module.flags = !{!0}
!llvm.ident = !{!1}

!0 = !{i32 1, !"wchar_size", i32 4}
!1 = !{!"clang version 10.0.0-4ubuntu1 "}
